target datalayout = "e-m:e-p270:32:32-p271:32:32-p272:64:64-i64:64-i128:128-f80:128-n8:16:32:64-S128"
target triple = "x86_64-pc-linux-gnu"

%union.pthread_mutex_t = type { %struct.__pthread_mutex_s }
%struct.__pthread_mutex_s = type { i32, i32, i32, i32, i32, i16, i16, %struct.__pthread_internal_list }
%struct.__pthread_internal_list = type { ptr, ptr }
%struct.WOLFSSL_BUFFER_INFO = type { ptr, i32 }
%struct.wolfSSL_RefWithMutex = type { %union.pthread_mutex_t, i32 }
%struct.WOLFSSL_CTX = type <{ ptr, %struct.wolfSSL_RefWithMutex, i32, [4 x i8], %struct.WOLFSSL_BUFFER_INFO, %struct.WOLFSSL_BUFFER_INFO, ptr, ptr, i32, [4 x i8], ptr, i8, i8, [2 x i8], i32, i32, [4 x i8], ptr, ptr, ptr, i8, i16, i8, i8, i8, i16, i16, i16, i16, [2 x i8], i64, ptr, ptr, ptr, ptr, i32, i32, i16, [2 x i8], i32, [10 x i16], i8, [3 x i8], ptr, ptr, i32, [4 x i8], ptr, i8, [7 x i8] }>
%struct.WOLFSSL_CERT_MANAGER = type { [11 x ptr], ptr, ptr, ptr, ptr, ptr, ptr, ptr, ptr, ptr, ptr, ptr, ptr, %union.pthread_mutex_t, i8, i16, i16, %struct.wolfSSL_RefWithMutex }

@.str = private unnamed_addr constant [33 x i8] c"\0AERROR - %s line %d failed with:\00", align 1
@.str.1 = private unnamed_addr constant [105 x i8] c"generated/home/dtcxzyw/WorkSpace/Projects/compilers/llvm-opt-benchmark/bench/wolfssl/wolfssl/tests/api.c\00", align 1
@.str.2 = private unnamed_addr constant [16 x i8] c"\0A    expected: \00", align 1
@stdout = external global ptr, align 8
@.str.6 = private unnamed_addr constant [16 x i8] c"\0A    result:   \00", align 1
@.str.8 = private unnamed_addr constant [3 x i8] c"\0A\0A\00", align 1
@.str.1024 = private unnamed_addr constant [2 x i8] c"0\00", align 1
@.str.1067 = private unnamed_addr constant [9 x i8] c"%s != %s\00", align 1
@.str.1070 = private unnamed_addr constant [9 x i8] c"%d == %d\00", align 1
@test_tls_cert_store_unchanged_before_hashes_idx = internal global i64 0, align 8
@test_tls_cert_store_unchanged_before_hashes = internal global [2 x i32] zeroinitializer, align 4
@.str.2122 = private unnamed_addr constant [158 x i8] c"test_tls_cert_store_unchanged_before_hashes [test_tls_cert_store_unchanged_before_hashes_idx++] = test_tls_cert_store_unchanged_HashCaTable(ctx->cm->caTable)\00", align 1

; Function Attrs: nounwind uwtable
define internal i32 @test_tls_cert_store_unchanged_ctx_ready(ptr noundef %0) #0 {
  %2 = alloca ptr, align 8
  %3 = alloca i32, align 4
  %4 = alloca i32, align 4
  %5 = alloca i32, align 4
  %6 = alloca i32, align 4
  store ptr %0, ptr %2, align 8, !tbaa !84
  call void @llvm.lifetime.start.p0(i64 4, ptr %3) #14
  store i32 3, ptr %3, align 4, !tbaa !10
  call void @llvm.lifetime.start.p0(i64 4, ptr %4) #14
  store i32 0, ptr %4, align 4, !tbaa !10
  br label %7

7:                                                ; preds = %1
  %8 = load i32, ptr %3, align 4, !tbaa !10
  %9 = icmp eq i32 %8, 1
  br i1 %9, label %19, label %10

10:                                               ; preds = %7
  %11 = load i32, ptr %3, align 4, !tbaa !10
  %12 = icmp eq i32 %11, 3
  br i1 %12, label %19, label %13

13:                                               ; preds = %10
  %14 = load i32, ptr %3, align 4, !tbaa !10
  %15 = icmp eq i32 %14, 2
  br i1 %15, label %19, label %16

16:                                               ; preds = %13
  %17 = load i32, ptr %3, align 4, !tbaa !10
  %18 = icmp eq i32 %17, 4
  br i1 %18, label %19, label %87

19:                                               ; preds = %16, %13, %10, %7
  call void @llvm.lifetime.start.p0(i64 4, ptr %5) #14
  %20 = load ptr, ptr %2, align 8, !tbaa !84
  %21 = getelementptr inbounds nuw %struct.WOLFSSL_CTX, ptr %20, i32 0, i32 17
  %22 = load ptr, ptr %21, align 8, !tbaa !292
  %23 = getelementptr inbounds nuw %struct.WOLFSSL_CERT_MANAGER, ptr %22, i32 0, i32 0
  %24 = getelementptr inbounds [11 x ptr], ptr %23, i64 0, i64 0
  %25 = call i32 @test_tls_cert_store_unchanged_HashCaTable(ptr noundef %24)
  %26 = load i64, ptr @test_tls_cert_store_unchanged_before_hashes_idx, align 8, !tbaa !72
  %27 = add i64 %26, 1
  store i64 %27, ptr @test_tls_cert_store_unchanged_before_hashes_idx, align 8, !tbaa !72
  %28 = getelementptr inbounds nuw [2 x i32], ptr @test_tls_cert_store_unchanged_before_hashes, i64 0, i64 %26
  store i32 %25, ptr %28, align 4, !tbaa !10
  store i32 %25, ptr %5, align 4, !tbaa !10
  call void @llvm.lifetime.start.p0(i64 4, ptr %6) #14
  store i32 0, ptr %6, align 4, !tbaa !10
  br label %29

29:                                               ; preds = %19
  %30 = load i32, ptr %3, align 4, !tbaa !10
  %31 = icmp eq i32 %30, 1
  br i1 %31, label %41, label %32

32:                                               ; preds = %29
  %33 = load i32, ptr %3, align 4, !tbaa !10
  %34 = icmp eq i32 %33, 3
  br i1 %34, label %41, label %35

35:                                               ; preds = %32
  %36 = load i32, ptr %3, align 4, !tbaa !10
  %37 = icmp eq i32 %36, 2
  br i1 %37, label %41, label %38

38:                                               ; preds = %35
  %39 = load i32, ptr %3, align 4, !tbaa !10
  %40 = icmp eq i32 %39, 4
  br i1 %40, label %41, label %78

41:                                               ; preds = %38, %35, %32, %29
  %42 = load i32, ptr %5, align 4, !tbaa !10
  %43 = load i32, ptr %6, align 4, !tbaa !10
  %44 = icmp ne i32 %42, %43
  br i1 %44, label %71, label %45

45:                                               ; preds = %41
  br label %46

46:                                               ; preds = %45
  %47 = load i32, ptr %3, align 4, !tbaa !10
  %48 = icmp eq i32 %47, 2
  br i1 %48, label %52, label %49

49:                                               ; preds = %46
  %50 = load i32, ptr %3, align 4, !tbaa !10
  %51 = icmp eq i32 %50, 4
  br i1 %51, label %52, label %54

52:                                               ; preds = %49, %46
  %53 = load i32, ptr %4, align 4, !tbaa !10
  store i32 %53, ptr %3, align 4, !tbaa !10
  br label %68

54:                                               ; preds = %49
  %55 = call i32 (ptr, ...) @printf(ptr noundef @.str, ptr noundef @.str.1, i32 noundef 97582)
  %56 = load ptr, ptr @stdout, align 8, !tbaa !22
  %57 = call i32 @fputs(ptr noundef @.str.2, ptr noundef %56)
  %58 = call i32 (ptr, ...) @printf(ptr noundef @.str.1067, ptr noundef @.str.2122, ptr noundef @.str.1024)
  %59 = load ptr, ptr @stdout, align 8, !tbaa !22
  %60 = call i32 @fputs(ptr noundef @.str.6, ptr noundef %59)
  %61 = load i32, ptr %5, align 4, !tbaa !10
  %62 = load i32, ptr %6, align 4, !tbaa !10
  %63 = call i32 (ptr, ...) @printf(ptr noundef @.str.1070, i32 noundef %61, i32 noundef %62)
  %64 = load ptr, ptr @stdout, align 8, !tbaa !22
  %65 = call i32 @fputs(ptr noundef @.str.8, ptr noundef %64)
  %66 = load ptr, ptr @stdout, align 8, !tbaa !22
  %67 = call i32 @fflush(ptr noundef %66)
  store i32 0, ptr %3, align 4, !tbaa !10
  br label %68

68:                                               ; preds = %54, %52
  br label %69

69:                                               ; preds = %68
  br label %70

70:                                               ; preds = %69
  br label %77

71:                                               ; preds = %41
  %72 = load i32, ptr %3, align 4, !tbaa !10
  %73 = icmp eq i32 %72, 4
  br i1 %73, label %74, label %75

74:                                               ; preds = %71
  store i32 2, ptr %3, align 4, !tbaa !10
  br label %76

75:                                               ; preds = %71
  store i32 1, ptr %3, align 4, !tbaa !10
  br label %76

76:                                               ; preds = %75, %74
  br label %77

77:                                               ; preds = %76, %70
  br label %78

78:                                               ; preds = %77, %38
  %79 = load i32, ptr %3, align 4, !tbaa !10
  %80 = icmp eq i32 %79, 2
  br i1 %80, label %81, label %84

81:                                               ; preds = %78
  %82 = load i32, ptr %4, align 4, !tbaa !10
  %83 = add nsw i32 %82, -1
  store i32 %83, ptr %4, align 4, !tbaa !10
  br label %84

84:                                               ; preds = %81, %78
  br label %85

85:                                               ; preds = %84
  br label %86

86:                                               ; preds = %85
  call void @llvm.lifetime.end.p0(i64 4, ptr %6) #14
  call void @llvm.lifetime.end.p0(i64 4, ptr %5) #14
  br label %87

87:                                               ; preds = %86, %16
  br label %88

88:                                               ; preds = %87
  br label %89

89:                                               ; preds = %88
  %90 = load ptr, ptr %2, align 8, !tbaa !84
  call void @wolfSSL_CTX_set_verify(ptr noundef %90, i32 noundef 3, ptr noundef null)
  %91 = load i32, ptr %3, align 4, !tbaa !10
  %92 = icmp eq i32 %91, 2
  br i1 %92, label %93, label %94

93:                                               ; preds = %89
  br label %102

94:                                               ; preds = %89
  %95 = load i32, ptr %3, align 4, !tbaa !10
  %96 = icmp eq i32 %95, 4
  br i1 %96, label %97, label %98

97:                                               ; preds = %94
  br label %100

98:                                               ; preds = %94
  %99 = load i32, ptr %3, align 4, !tbaa !10
  br label %100

100:                                              ; preds = %98, %97
  %101 = phi i32 [ 3, %97 ], [ %99, %98 ]
  br label %102

102:                                              ; preds = %100, %93
  %103 = phi i32 [ 1, %93 ], [ %101, %100 ]
  call void @llvm.lifetime.end.p0(i64 4, ptr %4) #14
  call void @llvm.lifetime.end.p0(i64 4, ptr %3) #14
  ret i32 %103
}