; Function Attrs: nounwind uwtable
define internal range(i32 0, 2) i32 @test_tls_cert_store_unchanged_ctx_ready(ptr noundef %0) #0 {
  %2 = getelementptr inbounds nuw i8, ptr %0, i64 144
  %3 = load ptr, ptr %2, align 8, !tbaa !248
  %4 = tail call fastcc i32 @test_tls_cert_store_unchanged_HashCaTable(ptr noundef %3)
  %5 = load i64, ptr @test_tls_cert_store_unchanged_before_hashes_idx, align 8, !tbaa !56
  %6 = add i64 %5, 1
  store i64 %6, ptr @test_tls_cert_store_unchanged_before_hashes_idx, align 8, !tbaa !56
  %7 = getelementptr inbounds nuw [2 x i32], ptr @test_tls_cert_store_unchanged_before_hashes, i64 0, i64 %5
  store i32 %4, ptr %7, align 4, !tbaa !67
  %.not = icmp eq i32 %4, 0
  br i1 %.not, label %8, label %20

8:                                                ; preds = %1
  %9 = tail call i32 (ptr, ...) @printf(ptr noundef nonnull dereferenceable(1) @.str, ptr noundef nonnull @.str.1, i32 noundef 97582)
  %10 = load ptr, ptr @stdout, align 8, !tbaa !22
  %11 = tail call i64 @fwrite(ptr nonnull @.str.2, i64 15, i64 1, ptr %10)
  %12 = tail call i32 (ptr, ...) @printf(ptr noundef nonnull dereferenceable(1) @.str.1067, ptr noundef nonnull @.str.2122, ptr noundef nonnull @.str.1024)
  %13 = load ptr, ptr @stdout, align 8, !tbaa !22
  %14 = tail call i64 @fwrite(ptr nonnull @.str.6, i64 15, i64 1, ptr %13)
  %15 = tail call i32 (ptr, ...) @printf(ptr noundef nonnull dereferenceable(1) @.str.1070, i32 noundef 0, i32 noundef 0)
  %16 = load ptr, ptr @stdout, align 8, !tbaa !22
  %17 = tail call i64 @fwrite(ptr nonnull @.str.8, i64 2, i64 1, ptr %16)
  %18 = load ptr, ptr @stdout, align 8, !tbaa !22
  %19 = tail call i32 @fflush(ptr noundef %18)
  br label %20

20:                                               ; preds = %1, %8
  %.0 = phi i32 [ 0, %8 ], [ 1, %1 ]
  tail call void @wolfSSL_CTX_set_verify(ptr noundef nonnull %0, i32 noundef 3, ptr noundef null) #27
  ret i32 %.0
}